target datalayout = "e-m:e-p270:32:32-p271:32:32-p272:64:64-i64:64-i128:128-f80:128-n8:16:32:64-S128"
target triple = "x86_64-pc-linux-gnu"

%struct.Bdc_Man_t_ = type { ptr, i32, i32, i32, i32, ptr, i32, i32, i32, ptr, ptr, i32, ptr, ptr, ptr, ptr, ptr, ptr, ptr, %struct.Bdc_Isf_t_, ptr, %struct.Bdc_Isf_t_, ptr, %struct.Bdc_Isf_t_, ptr, %struct.Bdc_Isf_t_, ptr, i32, i32, i32, i32, i32, i32, i32, i64, i64, i64, i64, i64 }
%struct.Bdc_Isf_t_ = type { i32, i32, ptr, ptr }
%struct.Bdc_Par_t_ = type { i32, i32, i32 }
%struct.timespec = type { i64, i64 }

; Function Attrs: inlinehint nounwind uwtable
define internal i32 @Kit_WordCountOnes(i32 noundef %0) #3 {
  %2 = alloca i32, align 4
  store i32 %0, ptr %2, align 4, !tbaa !28
  %3 = load i32, ptr %2, align 4, !tbaa !28
  %4 = and i32 %3, 1431655765
  %5 = load i32, ptr %2, align 4, !tbaa !28
  %6 = lshr i32 %5, 1
  %7 = and i32 %6, 1431655765
  %8 = add i32 %4, %7
  store i32 %8, ptr %2, align 4, !tbaa !28
  %9 = load i32, ptr %2, align 4, !tbaa !28
  %10 = and i32 %9, 858993459
  %11 = load i32, ptr %2, align 4, !tbaa !28
  %12 = lshr i32 %11, 2
  %13 = and i32 %12, 858993459
  %14 = add i32 %10, %13
  store i32 %14, ptr %2, align 4, !tbaa !28
  %15 = load i32, ptr %2, align 4, !tbaa !28
  %16 = and i32 %15, 252645135
  %17 = load i32, ptr %2, align 4, !tbaa !28
  %18 = lshr i32 %17, 4
  %19 = and i32 %18, 252645135
  %20 = add i32 %16, %19
  store i32 %20, ptr %2, align 4, !tbaa !28
  %21 = load i32, ptr %2, align 4, !tbaa !28
  %22 = and i32 %21, 16711935
  %23 = load i32, ptr %2, align 4, !tbaa !28
  %24 = lshr i32 %23, 8
  %25 = and i32 %24, 16711935
  %26 = add i32 %22, %25
  store i32 %26, ptr %2, align 4, !tbaa !28
  %27 = load i32, ptr %2, align 4, !tbaa !28
  %28 = and i32 %27, 65535
  %29 = load i32, ptr %2, align 4, !tbaa !28
  %30 = lshr i32 %29, 16
  %31 = add i32 %28, %30
  ret i32 %31
}

; Function Attrs: inlinehint nounwind uwtable
define internal i64 @Abc_Clock() #3 {
  %1 = alloca i64, align 8
  %2 = alloca %struct.timespec, align 8
  %3 = alloca i32, align 4
  %4 = alloca i64, align 8
  call void @llvm.lifetime.start.p0(i64 16, ptr %2) #7
  %5 = call i32 @clock_gettime(i32 noundef 1, ptr noundef %2) #7
  %6 = icmp slt i32 %5, 0
  br i1 %6, label %7, label %8

7:                                                ; preds = %0
  store i64 -1, ptr %1, align 8
  store i32 1, ptr %3, align 4
  br label %19

8:                                                ; preds = %0
  call void @llvm.lifetime.start.p0(i64 8, ptr %4) #7
  %9 = getelementptr inbounds nuw %struct.timespec, ptr %2, i32 0, i32 0
  %10 = load i64, ptr %9, align 8, !tbaa !88
  %11 = mul nsw i64 %10, 1000000
  store i64 %11, ptr %4, align 8, !tbaa !10
  %12 = getelementptr inbounds nuw %struct.timespec, ptr %2, i32 0, i32 1
  %13 = load i64, ptr %12, align 8, !tbaa !90
  %14 = mul nsw i64 %13, 1000000
  %15 = sdiv i64 %14, 1000000000
  %16 = load i64, ptr %4, align 8, !tbaa !10
  %17 = add nsw i64 %16, %15
  store i64 %17, ptr %4, align 8, !tbaa !10
  %18 = load i64, ptr %4, align 8, !tbaa !10
  store i64 %18, ptr %1, align 8
  store i32 1, ptr %3, align 4
  call void @llvm.lifetime.end.p0(i64 8, ptr %4) #7
  br label %19

19:                                               ; preds = %8, %7
  call void @llvm.lifetime.end.p0(i64 16, ptr %2) #7
  %20 = load i64, ptr %1, align 8
  ret i64 %20
}

; Function Attrs: nounwind uwtable
define i32 @Bdc_DecomposeStepMux(ptr noundef %0, ptr noundef %1, ptr noundef %2, ptr noundef %3) #0 {
  %5 = alloca ptr, align 8
  %6 = alloca ptr, align 8
  %7 = alloca ptr, align 8
  %8 = alloca ptr, align 8
  %9 = alloca i32, align 4
  %10 = alloca i32, align 4
  %11 = alloca i32, align 4
  %12 = alloca i32, align 4
  %13 = alloca i32, align 4
  %14 = alloca i32, align 4
  %15 = alloca i64, align 8
  store ptr %0, ptr %5, align 8, !tbaa !3
  store ptr %1, ptr %6, align 8, !tbaa !8
  store ptr %2, ptr %7, align 8, !tbaa !8
  store ptr %3, ptr %8, align 8, !tbaa !8
  call void @llvm.lifetime.start.p0(i64 4, ptr %9) #7
  call void @llvm.lifetime.start.p0(i64 4, ptr %10) #7
  call void @llvm.lifetime.start.p0(i64 4, ptr %11) #7
  call void @llvm.lifetime.start.p0(i64 4, ptr %12) #7
  call void @llvm.lifetime.start.p0(i64 4, ptr %13) #7
  call void @llvm.lifetime.start.p0(i64 4, ptr %14) #7
  call void @llvm.lifetime.start.p0(i64 8, ptr %15) #7
  store i64 0, ptr %15, align 8, !tbaa !10
  %16 = load ptr, ptr %5, align 8, !tbaa !3
  %17 = getelementptr inbounds nuw %struct.Bdc_Man_t_, ptr %16, i32 0, i32 0
  %18 = load ptr, ptr %17, align 8, !tbaa !12
  %19 = getelementptr inbounds nuw %struct.Bdc_Par_t_, ptr %18, i32 0, i32 1
  %20 = load i32, ptr %19, align 4, !tbaa !22
  %21 = icmp ne i32 %20, 0
  br i1 %21, label %22, label %24

22:                                               ; preds = %4
  %23 = call i64 @Abc_Clock()
  store i64 %23, ptr %15, align 8, !tbaa !10
  br label %24

24:                                               ; preds = %22, %4
  store i32 -1, ptr %10, align 4, !tbaa !28
  store i32 1000, ptr %11, align 4, !tbaa !28
  store i32 0, ptr %9, align 4, !tbaa !28
  br label %25

25:                                               ; preds = %123, %24
  %26 = load i32, ptr %9, align 4, !tbaa !28
  %27 = load ptr, ptr %5, align 8, !tbaa !3
  %28 = getelementptr inbounds nuw %struct.Bdc_Man_t_, ptr %27, i32 0, i32 1
  %29 = load i32, ptr %28, align 8, !tbaa !25
  %30 = icmp slt i32 %26, %29
  br i1 %30, label %31, label %126

31:                                               ; preds = %25
  %32 = load ptr, ptr %6, align 8, !tbaa !8
  %33 = getelementptr inbounds nuw %struct.Bdc_Isf_t_, ptr %32, i32 0, i32 0
  %34 = load i32, ptr %33, align 8, !tbaa !27
  %35 = load i32, ptr %9, align 4, !tbaa !28
  %36 = shl i32 1, %35
  %37 = and i32 %34, %36
  %38 = icmp eq i32 %37, 0
  br i1 %38, label %39, label %40

39:                                               ; preds = %31
  br label %123

40:                                               ; preds = %31
  %41 = load ptr, ptr %7, align 8, !tbaa !8
  %42 = getelementptr inbounds nuw %struct.Bdc_Isf_t_, ptr %41, i32 0, i32 2
  %43 = load ptr, ptr %42, align 8, !tbaa !24
  %44 = load ptr, ptr %6, align 8, !tbaa !8
  %45 = getelementptr inbounds nuw %struct.Bdc_Isf_t_, ptr %44, i32 0, i32 2
  %46 = load ptr, ptr %45, align 8, !tbaa !24
  %47 = load ptr, ptr %5, align 8, !tbaa !3
  %48 = getelementptr inbounds nuw %struct.Bdc_Man_t_, ptr %47, i32 0, i32 1
  %49 = load i32, ptr %48, align 8, !tbaa !25
  %50 = load i32, ptr %9, align 4, !tbaa !28
  call void @Kit_TruthCofactor0New(ptr noundef %43, ptr noundef %46, i32 noundef %49, i32 noundef %50)
  %51 = load ptr, ptr %7, align 8, !tbaa !8
  %52 = getelementptr inbounds nuw %struct.Bdc_Isf_t_, ptr %51, i32 0, i32 3
  %53 = load ptr, ptr %52, align 8, !tbaa !26
  %54 = load ptr, ptr %6, align 8, !tbaa !8
  %55 = getelementptr inbounds nuw %struct.Bdc_Isf_t_, ptr %54, i32 0, i32 3
  %56 = load ptr, ptr %55, align 8, !tbaa !26
  %57 = load ptr, ptr %5, align 8, !tbaa !3
  %58 = getelementptr inbounds nuw %struct.Bdc_Man_t_, ptr %57, i32 0, i32 1
  %59 = load i32, ptr %58, align 8, !tbaa !25
  %60 = load i32, ptr %9, align 4, !tbaa !28
  call void @Kit_TruthCofactor0New(ptr noundef %53, ptr noundef %56, i32 noundef %59, i32 noundef %60)
  %61 = load ptr, ptr %8, align 8, !tbaa !8
  %62 = getelementptr inbounds nuw %struct.Bdc_Isf_t_, ptr %61, i32 0, i32 2
  %63 = load ptr, ptr %62, align 8, !tbaa !24
  %64 = load ptr, ptr %6, align 8, !tbaa !8
  %65 = getelementptr inbounds nuw %struct.Bdc_Isf_t_, ptr %64, i32 0, i32 2
  %66 = load ptr, ptr %65, align 8, !tbaa !24
  %67 = load ptr, ptr %5, align 8, !tbaa !3
  %68 = getelementptr inbounds nuw %struct.Bdc_Man_t_, ptr %67, i32 0, i32 1
  %69 = load i32, ptr %68, align 8, !tbaa !25
  %70 = load i32, ptr %9, align 4, !tbaa !28
  call void @Kit_TruthCofactor1New(ptr noundef %63, ptr noundef %66, i32 noundef %69, i32 noundef %70)
  %71 = load ptr, ptr %8, align 8, !tbaa !8
  %72 = getelementptr inbounds nuw %struct.Bdc_Isf_t_, ptr %71, i32 0, i32 3
  %73 = load ptr, ptr %72, align 8, !tbaa !26
  %74 = load ptr, ptr %6, align 8, !tbaa !8
  %75 = getelementptr inbounds nuw %struct.Bdc_Isf_t_, ptr %74, i32 0, i32 3
  %76 = load ptr, ptr %75, align 8, !tbaa !26
  %77 = load ptr, ptr %5, align 8, !tbaa !3
  %78 = getelementptr inbounds nuw %struct.Bdc_Man_t_, ptr %77, i32 0, i32 1
  %79 = load i32, ptr %78, align 8, !tbaa !25
  %80 = load i32, ptr %9, align 4, !tbaa !28
  call void @Kit_TruthCofactor1New(ptr noundef %73, ptr noundef %76, i32 noundef %79, i32 noundef %80)
  %81 = load ptr, ptr %7, align 8, !tbaa !8
  %82 = getelementptr inbounds nuw %struct.Bdc_Isf_t_, ptr %81, i32 0, i32 2
  %83 = load ptr, ptr %82, align 8, !tbaa !24
  %84 = load ptr, ptr %5, align 8, !tbaa !3
  %85 = getelementptr inbounds nuw %struct.Bdc_Man_t_, ptr %84, i32 0, i32 1
  %86 = load i32, ptr %85, align 8, !tbaa !25
  %87 = call i32 @Kit_TruthSupport(ptr noundef %83, i32 noundef %86)
  %88 = load ptr, ptr %7, align 8, !tbaa !8
  %89 = getelementptr inbounds nuw %struct.Bdc_Isf_t_, ptr %88, i32 0, i32 3
  %90 = load ptr, ptr %89, align 8, !tbaa !26
  %91 = load ptr, ptr %5, align 8, !tbaa !3
  %92 = getelementptr inbounds nuw %struct.Bdc_Man_t_, ptr %91, i32 0, i32 1
  %93 = load i32, ptr %92, align 8, !tbaa !25
  %94 = call i32 @Kit_TruthSupport(ptr noundef %90, i32 noundef %93)
  %95 = and i32 %87, %94
  store i32 %95, ptr %13, align 4, !tbaa !28
  %96 = load ptr, ptr %8, align 8, !tbaa !8
  %97 = getelementptr inbounds nuw %struct.Bdc_Isf_t_, ptr %96, i32 0, i32 2
  %98 = load ptr, ptr %97, align 8, !tbaa !24
  %99 = load ptr, ptr %5, align 8, !tbaa !3
  %100 = getelementptr inbounds nuw %struct.Bdc_Man_t_, ptr %99, i32 0, i32 1
  %101 = load i32, ptr %100, align 8, !tbaa !25
  %102 = call i32 @Kit_TruthSupport(ptr noundef %98, i32 noundef %101)
  %103 = load ptr, ptr %8, align 8, !tbaa !8
  %104 = getelementptr inbounds nuw %struct.Bdc_Isf_t_, ptr %103, i32 0, i32 3
  %105 = load ptr, ptr %104, align 8, !tbaa !26
  %106 = load ptr, ptr %5, align 8, !tbaa !3
  %107 = getelementptr inbounds nuw %struct.Bdc_Man_t_, ptr %106, i32 0, i32 1
  %108 = load i32, ptr %107, align 8, !tbaa !25
  %109 = call i32 @Kit_TruthSupport(ptr noundef %105, i32 noundef %108)
  %110 = and i32 %102, %109
  store i32 %110, ptr %14, align 4, !tbaa !28
  %111 = load i32, ptr %13, align 4, !tbaa !28
  %112 = call i32 @Kit_WordCountOnes(i32 noundef %111)
  %113 = load i32, ptr %14, align 4, !tbaa !28
  %114 = call i32 @Kit_WordCountOnes(i32 noundef %113)
  %115 = add nsw i32 %112, %114
  store i32 %115, ptr %12, align 4, !tbaa !28
  %116 = load i32, ptr %11, align 4, !tbaa !28
  %117 = load i32, ptr %12, align 4, !tbaa !28
  %118 = icmp sgt i32 %116, %117
  br i1 %118, label %119, label %122

119:                                              ; preds = %40
  %120 = load i32, ptr %12, align 4, !tbaa !28
  store i32 %120, ptr %11, align 4, !tbaa !28
  %121 = load i32, ptr %9, align 4, !tbaa !28
  store i32 %121, ptr %10, align 4, !tbaa !28
  br label %126

122:                                              ; preds = %40
  br label %123

123:                                              ; preds = %122, %39
  %124 = load i32, ptr %9, align 4, !tbaa !28
  %125 = add nsw i32 %124, 1
  store i32 %125, ptr %9, align 4, !tbaa !28
  br label %25, !llvm.loop !68

126:                                              ; preds = %119, %25
  %127 = load i32, ptr %10, align 4, !tbaa !28
  %128 = icmp sge i32 %127, 0
  br i1 %128, label %129, label %174

129:                                              ; preds = %126
  %130 = load ptr, ptr %7, align 8, !tbaa !8
  %131 = getelementptr inbounds nuw %struct.Bdc_Isf_t_, ptr %130, i32 0, i32 2
  %132 = load ptr, ptr %131, align 8, !tbaa !24
  %133 = load ptr, ptr %6, align 8, !tbaa !8
  %134 = getelementptr inbounds nuw %struct.Bdc_Isf_t_, ptr %133, i32 0, i32 2
  %135 = load ptr, ptr %134, align 8, !tbaa !24
  %136 = load ptr, ptr %5, align 8, !tbaa !3
  %137 = getelementptr inbounds nuw %struct.Bdc_Man_t_, ptr %136, i32 0, i32 1
  %138 = load i32, ptr %137, align 8, !tbaa !25
  %139 = load i32, ptr %10, align 4, !tbaa !28
  call void @Kit_TruthCofactor0New(ptr noundef %132, ptr noundef %135, i32 noundef %138, i32 noundef %139)
  %140 = load ptr, ptr %7, align 8, !tbaa !8
  %141 = getelementptr inbounds nuw %struct.Bdc_Isf_t_, ptr %140, i32 0, i32 3
  %142 = load ptr, ptr %141, align 8, !tbaa !26
  %143 = load ptr, ptr %6, align 8, !tbaa !8
  %144 = getelementptr inbounds nuw %struct.Bdc_Isf_t_, ptr %143, i32 0, i32 3
  %145 = load ptr, ptr %144, align 8, !tbaa !26
  %146 = load ptr, ptr %5, align 8, !tbaa !3
  %147 = getelementptr inbounds nuw %struct.Bdc_Man_t_, ptr %146, i32 0, i32 1
  %148 = load i32, ptr %147, align 8, !tbaa !25
  %149 = load i32, ptr %10, align 4, !tbaa !28
  call void @Kit_TruthCofactor0New(ptr noundef %142, ptr noundef %145, i32 noundef %148, i32 noundef %149)
  %150 = load ptr, ptr %8, align 8, !tbaa !8
  %151 = getelementptr inbounds nuw %struct.Bdc_Isf_t_, ptr %150, i32 0, i32 2
  %152 = load ptr, ptr %151, align 8, !tbaa !24
  %153 = load ptr, ptr %6, align 8, !tbaa !8
  %154 = getelementptr inbounds nuw %struct.Bdc_Isf_t_, ptr %153, i32 0, i32 2
  %155 = load ptr, ptr %154, align 8, !tbaa !24
  %156 = load ptr, ptr %5, align 8, !tbaa !3
  %157 = getelementptr inbounds nuw %struct.Bdc_Man_t_, ptr %156, i32 0, i32 1
  %158 = load i32, ptr %157, align 8, !tbaa !25
  %159 = load i32, ptr %10, align 4, !tbaa !28
  call void @Kit_TruthCofactor1New(ptr noundef %152, ptr noundef %155, i32 noundef %158, i32 noundef %159)
  %160 = load ptr, ptr %8, align 8, !tbaa !8
  %161 = getelementptr inbounds nuw %struct.Bdc_Isf_t_, ptr %160, i32 0, i32 3
  %162 = load ptr, ptr %161, align 8, !tbaa !26
  %163 = load ptr, ptr %6, align 8, !tbaa !8
  %164 = getelementptr inbounds nuw %struct.Bdc_Isf_t_, ptr %163, i32 0, i32 3
  %165 = load ptr, ptr %164, align 8, !tbaa !26
  %166 = load ptr, ptr %5, align 8, !tbaa !3
  %167 = getelementptr inbounds nuw %struct.Bdc_Man_t_, ptr %166, i32 0, i32 1
  %168 = load i32, ptr %167, align 8, !tbaa !25
  %169 = load i32, ptr %10, align 4, !tbaa !28
  call void @Kit_TruthCofactor1New(ptr noundef %162, ptr noundef %165, i32 noundef %168, i32 noundef %169)
  %170 = load ptr, ptr %5, align 8, !tbaa !3
  %171 = load ptr, ptr %7, align 8, !tbaa !8
  call void @Bdc_SuppMinimize(ptr noundef %170, ptr noundef %171)
  %172 = load ptr, ptr %5, align 8, !tbaa !3
  %173 = load ptr, ptr %8, align 8, !tbaa !8
  call void @Bdc_SuppMinimize(ptr noundef %172, ptr noundef %173)
  br label %174

174:                                              ; preds = %129, %126
  %175 = load ptr, ptr %5, align 8, !tbaa !3
  %176 = getelementptr inbounds nuw %struct.Bdc_Man_t_, ptr %175, i32 0, i32 0
  %177 = load ptr, ptr %176, align 8, !tbaa !12
  %178 = getelementptr inbounds nuw %struct.Bdc_Par_t_, ptr %177, i32 0, i32 1
  %179 = load i32, ptr %178, align 4, !tbaa !22
  %180 = icmp ne i32 %179, 0
  br i1 %180, label %181, label %189

181:                                              ; preds = %174
  %182 = call i64 @Abc_Clock()
  %183 = load i64, ptr %15, align 8, !tbaa !10
  %184 = sub nsw i64 %182, %183
  %185 = load ptr, ptr %5, align 8, !tbaa !3
  %186 = getelementptr inbounds nuw %struct.Bdc_Man_t_, ptr %185, i32 0, i32 36
  %187 = load i64, ptr %186, align 8, !tbaa !69
  %188 = add nsw i64 %187, %184
  store i64 %188, ptr %186, align 8, !tbaa !69
  br label %189

189:                                              ; preds = %181, %174
  %190 = load i32, ptr %10, align 4, !tbaa !28
  call void @llvm.lifetime.end.p0(i64 8, ptr %15) #7
  call void @llvm.lifetime.end.p0(i64 4, ptr %14) #7
  call void @llvm.lifetime.end.p0(i64 4, ptr %13) #7
  call void @llvm.lifetime.end.p0(i64 4, ptr %12) #7
  call void @llvm.lifetime.end.p0(i64 4, ptr %11) #7
  call void @llvm.lifetime.end.p0(i64 4, ptr %10) #7
  call void @llvm.lifetime.end.p0(i64 4, ptr %9) #7
  ret i32 %190
}